target datalayout = "e-m:e-p270:32:32-p271:32:32-p272:64:64-i64:64-i128:128-f80:128-n8:16:32:64-S128"
target triple = "x86_64-pc-linux-gnu"

%"struct.seq_util::rex::info" = type { i32, i8, i32, i32 }

; Function Attrs: mustprogress nounwind uwtable
define linkonce_odr hidden void @_ZN8seq_util3rex4infoC2Eb5lboolj(ptr noundef nonnull align 4 dereferenceable(16) %0, i1 noundef zeroext %1, i32 noundef %2, i32 noundef %3) unnamed_addr #6 comdat align 2 {
  %5 = alloca ptr, align 8
  %6 = alloca i8, align 1
  %7 = alloca i32, align 4
  %8 = alloca i32, align 4
  store ptr %0, ptr %5, align 8, !tbaa !301
  %9 = zext i1 %1 to i8
  store i8 %9, ptr %6, align 1, !tbaa !77
  store i32 %2, ptr %7, align 4, !tbaa !285
  store i32 %3, ptr %8, align 4, !tbaa !55
  %10 = load ptr, ptr %5, align 8
  %11 = getelementptr inbounds nuw %"struct.seq_util::rex::info", ptr %10, i32 0, i32 0
  store i32 1, ptr %11, align 4, !tbaa !302
  %12 = getelementptr inbounds nuw %"struct.seq_util::rex::info", ptr %10, i32 0, i32 1
  %13 = load i8, ptr %6, align 1, !tbaa !77, !range !78, !noundef !79
  %14 = trunc i8 %13 to i1
  %15 = zext i1 %14 to i8
  store i8 %15, ptr %12, align 4, !tbaa !303
  %16 = getelementptr inbounds nuw %"struct.seq_util::rex::info", ptr %10, i32 0, i32 2
  %17 = load i32, ptr %7, align 4, !tbaa !285
  store i32 %17, ptr %16, align 4, !tbaa !304
  %18 = getelementptr inbounds nuw %"struct.seq_util::rex::info", ptr %10, i32 0, i32 3
  %19 = load i32, ptr %8, align 4, !tbaa !55
  store i32 %19, ptr %18, align 4, !tbaa !283
  ret void
}

; Function Attrs: inlinehint mustprogress nounwind uwtable
define linkonce_odr noundef nonnull align 4 dereferenceable(4) ptr @_ZSt3maxIjERKT_S2_S2_(ptr noundef nonnull align 4 dereferenceable(4) %0, ptr noundef nonnull align 4 dereferenceable(4) %1) #5 comdat {
  %3 = alloca ptr, align 8
  %4 = alloca ptr, align 8
  %5 = alloca ptr, align 8
  store ptr %0, ptr %4, align 8, !tbaa !53
  store ptr %1, ptr %5, align 8, !tbaa !53
  %6 = load ptr, ptr %4, align 8, !tbaa !53
  %7 = load i32, ptr %6, align 4, !tbaa !55
  %8 = load ptr, ptr %5, align 8, !tbaa !53
  %9 = load i32, ptr %8, align 4, !tbaa !55
  %10 = icmp ult i32 %7, %9
  br i1 %10, label %11, label %13

11:                                               ; preds = %2
  %12 = load ptr, ptr %5, align 8, !tbaa !53
  store ptr %12, ptr %3, align 8
  br label %15

13:                                               ; preds = %2
  %14 = load ptr, ptr %4, align 8, !tbaa !53
  store ptr %14, ptr %3, align 8
  br label %15

15:                                               ; preds = %13, %11
  %16 = load ptr, ptr %3, align 8
  ret ptr %16
}

; Function Attrs: mustprogress nounwind uwtable
define linkonce_odr hidden noundef zeroext i1 @_ZNK8seq_util3rex4info8is_knownEv(ptr noundef nonnull align 4 dereferenceable(16) %0) #6 comdat align 2 {
  %2 = alloca ptr, align 8
  store ptr %0, ptr %2, align 8, !tbaa !301
  %3 = load ptr, ptr %2, align 8
  %4 = getelementptr inbounds nuw %"struct.seq_util::rex::info", ptr %3, i32 0, i32 0
  %5 = load i32, ptr %4, align 4, !tbaa !302
  %6 = icmp eq i32 %5, 1
  ret i1 %6
}

; Function Attrs: mustprogress uwtable
define hidden { i64, i64 } @_ZNK8seq_util3rex4info4diffERKS1_(ptr noundef nonnull align 4 dereferenceable(16) %0, ptr noundef nonnull align 4 dereferenceable(16) %1) #4 align 2 {
  %3 = alloca %"struct.seq_util::rex::info", align 4
  %4 = alloca ptr, align 8
  %5 = alloca ptr, align 8
  store ptr %0, ptr %4, align 8, !tbaa !301
  store ptr %1, ptr %5, align 8, !tbaa !301
  %6 = load ptr, ptr %4, align 8
  %7 = call noundef zeroext i1 @_ZNK8seq_util3rex4info8is_knownEv(ptr noundef nonnull align 4 dereferenceable(16) %6)
  br i1 %7, label %8, label %53

8:                                                ; preds = %2
  %9 = load ptr, ptr %5, align 8, !tbaa !301
  %10 = call noundef zeroext i1 @_ZNK8seq_util3rex4info8is_knownEv(ptr noundef nonnull align 4 dereferenceable(16) %9)
  br i1 %10, label %11, label %51

11:                                               ; preds = %8
  %12 = getelementptr inbounds nuw %"struct.seq_util::rex::info", ptr %6, i32 0, i32 1
  %13 = load i8, ptr %12, align 4, !tbaa !303, !range !78, !noundef !79
  %14 = trunc i8 %13 to i1
  %15 = zext i1 %14 to i32
  %16 = load ptr, ptr %5, align 8, !tbaa !301
  %17 = getelementptr inbounds nuw %"struct.seq_util::rex::info", ptr %16, i32 0, i32 1
  %18 = load i8, ptr %17, align 4, !tbaa !303, !range !78, !noundef !79
  %19 = trunc i8 %18 to i1
  %20 = zext i1 %19 to i32
  %21 = and i32 %15, %20
  %22 = icmp ne i32 %21, 0
  %23 = getelementptr inbounds nuw %"struct.seq_util::rex::info", ptr %6, i32 0, i32 2
  %24 = load i32, ptr %23, align 4, !tbaa !304
  %25 = icmp eq i32 %24, 1
  br i1 %25, label %26, label %32

26:                                               ; preds = %11
  %27 = load ptr, ptr %5, align 8, !tbaa !301
  %28 = getelementptr inbounds nuw %"struct.seq_util::rex::info", ptr %27, i32 0, i32 2
  %29 = load i32, ptr %28, align 4, !tbaa !304
  %30 = icmp eq i32 %29, -1
  br i1 %30, label %31, label %32

31:                                               ; preds = %26
  br label %44

32:                                               ; preds = %26, %11
  %33 = getelementptr inbounds nuw %"struct.seq_util::rex::info", ptr %6, i32 0, i32 2
  %34 = load i32, ptr %33, align 4, !tbaa !304
  %35 = icmp eq i32 %34, -1
  br i1 %35, label %41, label %36

36:                                               ; preds = %32
  %37 = load ptr, ptr %5, align 8, !tbaa !301
  %38 = getelementptr inbounds nuw %"struct.seq_util::rex::info", ptr %37, i32 0, i32 2
  %39 = load i32, ptr %38, align 4, !tbaa !304
  %40 = icmp eq i32 %39, -1
  br label %41

41:                                               ; preds = %36, %32
  %42 = phi i1 [ true, %32 ], [ %40, %36 ]
  %43 = select i1 %42, i32 -1, i32 0
  br label %44

44:                                               ; preds = %41, %31
  %45 = phi i32 [ 1, %31 ], [ %43, %41 ]
  %46 = getelementptr inbounds nuw %"struct.seq_util::rex::info", ptr %6, i32 0, i32 3
  %47 = load ptr, ptr %5, align 8, !tbaa !301
  %48 = getelementptr inbounds nuw %"struct.seq_util::rex::info", ptr %47, i32 0, i32 3
  %49 = call noundef nonnull align 4 dereferenceable(4) ptr @_ZSt3maxIjERKT_S2_S2_(ptr noundef nonnull align 4 dereferenceable(4) %46, ptr noundef nonnull align 4 dereferenceable(4) %48)
  %50 = load i32, ptr %49, align 4, !tbaa !55
  call void @_ZN8seq_util3rex4infoC2Eb5lboolj(ptr noundef nonnull align 4 dereferenceable(16) %3, i1 noundef zeroext %22, i32 noundef %45, i32 noundef %50)
  br label %54

51:                                               ; preds = %8
  %52 = load ptr, ptr %5, align 8, !tbaa !301
  call void @llvm.memcpy.p0.p0.i64(ptr align 4 %3, ptr align 4 %52, i64 16, i1 false), !tbaa.struct !284
  br label %54

53:                                               ; preds = %2
  call void @llvm.memcpy.p0.p0.i64(ptr align 4 %3, ptr align 4 %6, i64 16, i1 false), !tbaa.struct !284
  br label %54

54:                                               ; preds = %53, %51, %44
  %55 = load { i64, i64 }, ptr %3, align 4
  ret { i64, i64 } %55
}