; Function Attrs: mustprogress nofree norecurse nosync nounwind willreturn memory(argmem: read) uwtable
define hidden { i64, i64 } @_ZNK8seq_util3rex4info4diffERKS1_(ptr noundef nonnull readonly align 4 captures(none) dereferenceable(16) %0, ptr noundef nonnull readonly align 4 captures(none) dereferenceable(16) %1) local_unnamed_addr #14 align 2 {
  %3 = load i32, ptr %0, align 4, !tbaa !208
  %4 = icmp eq i32 %3, 1
  br i1 %4, label %5, label %28

5:                                                ; preds = %2
  %6 = load i32, ptr %1, align 4, !tbaa !208
  %7 = icmp eq i32 %6, 1
  br i1 %7, label %8, label %27

8:                                                ; preds = %5
  %9 = getelementptr inbounds nuw i8, ptr %0, i64 4
  %10 = load i8, ptr %9, align 4, !tbaa !209, !range !81, !noundef !82
  %11 = getelementptr inbounds nuw i8, ptr %1, i64 4
  %12 = load i8, ptr %11, align 4, !tbaa !209, !range !81, !noundef !82
  %13 = and i8 %12, %10
  %14 = getelementptr inbounds nuw i8, ptr %0, i64 8
  %15 = load i32, ptr %14, align 4, !tbaa !210
  %16 = icmp eq i32 %15, 1
  %17 = getelementptr inbounds nuw i8, ptr %1, i64 8
  %18 = load i32, ptr %17, align 4
  %19 = icmp eq i32 %18, -1
  %or.cond = select i1 %16, i1 %19, i1 false
  %20 = icmp eq i32 %15, -1
  %narrow = select i1 %20, i1 true, i1 %19
  %21 = getelementptr inbounds nuw i8, ptr %0, i64 12
  %22 = getelementptr inbounds nuw i8, ptr %1, i64 12
  %23 = load i32, ptr %21, align 4, !tbaa !29
  %24 = load i32, ptr %22, align 4, !tbaa !29
  %25 = tail call i32 @llvm.umax.i32(i32 %23, i32 %24)
  %26 = select i1 %narrow, i64 4294967295, i64 0
  %.sroa.5.8.insert.ext = select i1 %or.cond, i64 1, i64 %26
  %.sroa.5.12.insert.ext = zext i32 %25 to i64
  %.sroa.5.12.insert.shift = shl nuw i64 %.sroa.5.12.insert.ext, 32
  %.sroa.5.12.insert.insert = or disjoint i64 %.sroa.5.12.insert.shift, %.sroa.5.8.insert.ext
  br label %29

27:                                               ; preds = %5
  %.sroa.0.0.copyload = load i64, ptr %1, align 4
  %.sroa.0.sroa.4.0.extract.shift = lshr i64 %.sroa.0.0.copyload, 32
  %.sroa.0.sroa.4.0.extract.trunc = trunc i64 %.sroa.0.sroa.4.0.extract.shift to i8
  %.sroa.0.sroa.5.0.extract.shift = and i64 %.sroa.0.0.copyload, -1099511627776
  %.sroa.5.0..sroa_idx = getelementptr inbounds nuw i8, ptr %1, i64 8
  %.sroa.5.0.copyload = load i64, ptr %.sroa.5.0..sroa_idx, align 4
  br label %29

28:                                               ; preds = %2
  %.sroa.0.0.copyload9 = load i64, ptr %0, align 4
  %.sroa.0.sroa.4.0.extract.shift13 = lshr i64 %.sroa.0.0.copyload9, 32
  %.sroa.0.sroa.4.0.extract.trunc14 = trunc i64 %.sroa.0.sroa.4.0.extract.shift13 to i8
  %.sroa.0.sroa.5.0.extract.shift15 = and i64 %.sroa.0.0.copyload9, -1099511627776
  %.sroa.5.0..sroa_idx10 = getelementptr inbounds nuw i8, ptr %0, i64 8
  %.sroa.5.0.copyload11 = load i64, ptr %.sroa.5.0..sroa_idx10, align 4
  br label %29

29:                                               ; preds = %28, %27, %8
  %.sroa.0.sroa.5.sroa.0.0 = phi i64 [ 0, %8 ], [ %.sroa.0.sroa.5.0.extract.shift, %27 ], [ %.sroa.0.sroa.5.0.extract.shift15, %28 ]
  %.sroa.0.sroa.4.0 = phi i8 [ %13, %8 ], [ %.sroa.0.sroa.4.0.extract.trunc, %27 ], [ %.sroa.0.sroa.4.0.extract.trunc14, %28 ]
  %.sroa.0.sroa.0.0 = phi i64 [ 1, %8 ], [ %.sroa.0.0.copyload, %27 ], [ %.sroa.0.0.copyload9, %28 ]
  %.sroa.5.0 = phi i64 [ %.sroa.5.12.insert.insert, %8 ], [ %.sroa.5.0.copyload, %27 ], [ %.sroa.5.0.copyload11, %28 ]
  %.sroa.0.sroa.4.0.insert.ext = zext i8 %.sroa.0.sroa.4.0 to i64
  %.sroa.0.sroa.4.0.insert.shift = shl nuw nsw i64 %.sroa.0.sroa.4.0.insert.ext, 32
  %.sroa.0.sroa.4.0.insert.insert = or disjoint i64 %.sroa.0.sroa.4.0.insert.shift, %.sroa.0.sroa.5.sroa.0.0
  %.sroa.0.sroa.0.0.insert.ext = and i64 %.sroa.0.sroa.0.0, 4294967295
  %.sroa.0.sroa.0.0.insert.insert = or disjoint i64 %.sroa.0.sroa.4.0.insert.insert, %.sroa.0.sroa.0.0.insert.ext
  %.fca.0.insert = insertvalue { i64, i64 } poison, i64 %.sroa.0.sroa.0.0.insert.insert, 0
  %.fca.1.insert = insertvalue { i64, i64 } %.fca.0.insert, i64 %.sroa.5.0, 1
  ret { i64, i64 } %.fca.1.insert
}